; ModuleID = '30/1927.c'
source_filename = "30/1927.c"
target datalayout = "e-m:e-p270:32:32-p271:32:32-p272:64:64-i64:64-f80:128-n8:16:32:64-S128"
target triple = "x86_64-pc-linux-gnu"

@.str = private unnamed_addr constant [3 x i8] c"%d\00", align 1
@.str.1 = private unnamed_addr constant [4 x i8] c"%d\0A\00", align 1

; Function Attrs: noinline nounwind uwtable
define dso_local i32 @main(i32 %0, i8** %1) #0 {
  %3 = alloca i32, align 4
  %4 = alloca i32, align 4
  %5 = alloca i8**, align 8
  %6 = alloca i32, align 4
  %7 = alloca i32, align 4
  %8 = alloca i32, align 4
  %9 = alloca i32, align 4
  store i32 0, i32* %3, align 4
  store i32 %0, i32* %4, align 4
  store i8** %1, i8*** %5, align 8
  store i32 0, i32* %8, align 4
  %10 = call i32 (i8*, ...) @__isoc99_scanf(i8* getelementptr inbounds ([3 x i8], [3 x i8]* @.str, i64 0, i64 0), i32* %6)
  store i32 0, i32* %7, align 4
  br label %11

11:                                               ; preds = %34, %33, %2
  %12 = load i32, i32* %7, align 4
  %13 = load i32, i32* %6, align 4
  %14 = icmp slt i32 %12, %13
  br i1 %14, label %15, label %40

15:                                               ; preds = %11
  %16 = load i32, i32* %7, align 4
  %17 = add nsw i32 %16, 1
  store i32 %17, i32* %7, align 4
  %18 = load i32, i32* %7, align 4
  %19 = sdiv i32 %18, 10
  store i32 %19, i32* %9, align 4
  %20 = load i32, i32* %7, align 4
  %21 = srem i32 %20, 7
  %22 = icmp eq i32 %21, 0
  br i1 %22, label %33, label %23

23:                                               ; preds = %15
  %24 = load i32, i32* %7, align 4
  %25 = sdiv i32 %24, 10
  %26 = icmp eq i32 %25, 7
  br i1 %26, label %33, label %27

27:                                               ; preds = %23
  %28 = load i32, i32* %7, align 4
  %29 = load i32, i32* %9, align 4
  %30 = mul nsw i32 %29, 10
  %31 = sub nsw i32 %28, %30
  %32 = icmp eq i32 %31, 7
  br i1 %32, label %33, label %34

33:                                               ; preds = %27, %23, %15
  br label %11

34:                                               ; preds = %27
  %35 = load i32, i32* %8, align 4
  %36 = load i32, i32* %7, align 4
  %37 = load i32, i32* %7, align 4
  %38 = mul nsw i32 %36, %37
  %39 = add nsw i32 %35, %38
  store i32 %39, i32* %8, align 4
  br label %11

40:                                               ; preds = %11
  %41 = load i32, i32* %8, align 4
  %42 = call i32 (i8*, ...) @printf(i8* getelementptr inbounds ([4 x i8], [4 x i8]* @.str.1, i64 0, i64 0), i32 %41)
  ret i32 0
}

declare dso_local i32 @__isoc99_scanf(i8*, ...) #1

declare dso_local i32 @printf(i8*, ...) #1


!llvm.module.flags = !{!0}
!llvm.ident = !{!1}

!0 = !{i32 1, !"wchar_size", i32 4}
!1 = !{!"clang version 10.0.0-4ubuntu1 "}
