; ModuleID = 'source-C-CXX/29/1927.c'
source_filename = "source-C-CXX/29/1927.c"
target datalayout = "e-m:e-p270:32:32-p271:32:32-p272:64:64-i64:64-f80:128-n8:16:32:64-S128"
target triple = "x86_64-pc-linux-gnu"

@.str = private unnamed_addr constant [3 x i8] c"%d\00", align 1
@.str.1 = private unnamed_addr constant [4 x i8] c"%d\0A\00", align 1

; Function Attrs: nofree nounwind sspstrong uwtable
define dso_local i32 @main(i32 %0, i8** nocapture readnone %1) local_unnamed_addr #0 {
  %3 = alloca i32, align 4
  %4 = bitcast i32* %3 to i8*
  call void @llvm.lifetime.start.p0i8(i64 4, i8* nonnull %4) #4
  %5 = call i32 (i8*, ...) @__isoc99_scanf(i8* getelementptr inbounds ([3 x i8], [3 x i8]* @.str, i64 0, i64 0), i32* nonnull %3)
  %6 = load i32, i32* %3, align 4, !tbaa !5
  br label %7

7:                                                ; preds = %24, %2
  %8 = phi i32 [ %26, %24 ], [ 0, %2 ]
  %9 = phi i32 [ %15, %24 ], [ 0, %2 ]
  %10 = call i32 @llvm.smax.i32(i32 %9, i32 %6)
  br label %11

11:                                               ; preds = %7, %14
  %12 = phi i32 [ %15, %14 ], [ %9, %7 ]
  %13 = icmp eq i32 %12, %10
  br i1 %13, label %27, label %14

14:                                               ; preds = %11
  %15 = add i32 %12, 1
  %16 = srem i32 %15, 7
  %17 = icmp eq i32 %16, 0
  %18 = add i32 %12, -69
  %19 = icmp ult i32 %18, 10
  %20 = select i1 %17, i1 true, i1 %19
  %21 = srem i32 %15, 10
  %22 = icmp eq i32 %21, 7
  %23 = select i1 %20, i1 true, i1 %22
  br i1 %23, label %11, label %24, !llvm.loop !9

24:                                               ; preds = %14
  %25 = mul nsw i32 %15, %15
  %26 = add nuw nsw i32 %25, %8
  br label %7, !llvm.loop !9

27:                                               ; preds = %11
  %28 = call i32 (i8*, ...) @printf(i8* nonnull dereferenceable(1) getelementptr inbounds ([4 x i8], [4 x i8]* @.str.1, i64 0, i64 0), i32 %8)
  call void @llvm.lifetime.end.p0i8(i64 4, i8* nonnull %4) #4
  ret i32 0
}

; Function Attrs: argmemonly mustprogress nofree nosync nounwind willreturn
declare void @llvm.lifetime.start.p0i8(i64 immarg, i8* nocapture) #1

; Function Attrs: nofree nounwind
declare noundef i32 @__isoc99_scanf(i8* nocapture noundef readonly, ...) local_unnamed_addr #2

; Function Attrs: nofree nounwind
declare noundef i32 @printf(i8* nocapture noundef readonly, ...) local_unnamed_addr #2

; Function Attrs: argmemonly mustprogress nofree nosync nounwind willreturn
declare void @llvm.lifetime.end.p0i8(i64 immarg, i8* nocapture) #1

; Function Attrs: nofree nosync nounwind readnone speculatable willreturn
declare i32 @llvm.smax.i32(i32, i32) #3


!llvm.module.flags = !{!0, !1, !2, !3}
!llvm.ident = !{!4}

!0 = !{i32 1, !"wchar_size", i32 4}
!1 = !{i32 7, !"PIC Level", i32 2}
!2 = !{i32 7, !"PIE Level", i32 2}
!3 = !{i32 7, !"uwtable", i32 1}
!4 = !{!"clang version 13.0.0"}
!5 = !{!6, !6, i64 0}
!6 = !{!"int", !7, i64 0}
!7 = !{!"omnipotent char", !8, i64 0}
!8 = !{!"Simple C/C++ TBAA"}
!9 = distinct !{!9, !10}
!10 = !{!"llvm.loop.mustprogress"}
